target datalayout = "e-m:e-p270:32:32-p271:32:32-p272:64:64-i64:64-i128:128-f80:128-n8:16:32:64-S128"
target triple = "x86_64-pc-linux-gnu"

%"class.pxrInternal_v0_24__pxrReserved__::CameraUtilFraming" = type { %"class.pxrInternal_v0_24__pxrReserved__::GfRange2f", %"class.pxrInternal_v0_24__pxrReserved__::GfRect2i", float }
%"class.pxrInternal_v0_24__pxrReserved__::GfRange2f" = type { %"class.pxrInternal_v0_24__pxrReserved__::GfVec2f", %"class.pxrInternal_v0_24__pxrReserved__::GfVec2f" }
%"class.pxrInternal_v0_24__pxrReserved__::GfVec2f" = type { [2 x float] }
%"class.pxrInternal_v0_24__pxrReserved__::GfRect2i" = type { %"class.pxrInternal_v0_24__pxrReserved__::GfVec2i", %"class.pxrInternal_v0_24__pxrReserved__::GfVec2i" }
%"class.pxrInternal_v0_24__pxrReserved__::GfVec2i" = type { [2 x i32] }

; Function Attrs: mustprogress nounwind uwtable
define linkonce_odr noundef nonnull align 4 dereferenceable(4) ptr @_ZNK32pxrInternal_v0_24__pxrReserved__7GfVec2iixEm(ptr noundef nonnull align 4 dereferenceable(8) %0, i64 noundef %1) #1 comdat align 2 {
  %3 = alloca ptr, align 8
  %4 = alloca i64, align 8
  store ptr %0, ptr %3, align 8
  store i64 %1, ptr %4, align 8
  %5 = load ptr, ptr %3, align 8
  %6 = getelementptr inbounds nuw %"class.pxrInternal_v0_24__pxrReserved__::GfVec2i", ptr %5, i32 0, i32 0
  %7 = load i64, ptr %4, align 8
  %8 = getelementptr inbounds [2 x i32], ptr %6, i64 0, i64 %7
  ret ptr %8
}

; Function Attrs: mustprogress nounwind uwtable
define linkonce_odr noundef nonnull align 4 dereferenceable(4) ptr @_ZNK32pxrInternal_v0_24__pxrReserved__7GfVec2fixEm(ptr noundef nonnull align 4 dereferenceable(8) %0, i64 noundef %1) #1 comdat align 2 {
  %3 = alloca ptr, align 8
  %4 = alloca i64, align 8
  store ptr %0, ptr %3, align 8
  store i64 %1, ptr %4, align 8
  %5 = load ptr, ptr %3, align 8
  %6 = getelementptr inbounds nuw %"class.pxrInternal_v0_24__pxrReserved__::GfVec2f", ptr %5, i32 0, i32 0
  %7 = load i64, ptr %4, align 8
  %8 = getelementptr inbounds [2 x float], ptr %6, i64 0, i64 %7
  ret ptr %8
}

; Function Attrs: mustprogress nounwind uwtable
define linkonce_odr noundef i32 @_ZNK32pxrInternal_v0_24__pxrReserved__8GfRect2i9GetHeightEv(ptr noundef nonnull align 4 dereferenceable(16) %0) #1 comdat align 2 {
  %2 = alloca ptr, align 8
  store ptr %0, ptr %2, align 8
  %3 = load ptr, ptr %2, align 8
  %4 = getelementptr inbounds nuw %"class.pxrInternal_v0_24__pxrReserved__::GfRect2i", ptr %3, i32 0, i32 1
  %5 = call noundef nonnull align 4 dereferenceable(4) ptr @_ZNK32pxrInternal_v0_24__pxrReserved__7GfVec2iixEm(ptr noundef nonnull align 4 dereferenceable(8) %4, i64 noundef 1)
  %6 = load i32, ptr %5, align 4
  %7 = getelementptr inbounds nuw %"class.pxrInternal_v0_24__pxrReserved__::GfRect2i", ptr %3, i32 0, i32 0
  %8 = call noundef nonnull align 4 dereferenceable(4) ptr @_ZNK32pxrInternal_v0_24__pxrReserved__7GfVec2iixEm(ptr noundef nonnull align 4 dereferenceable(8) %7, i64 noundef 1)
  %9 = load i32, ptr %8, align 4
  %10 = sub nsw i32 %6, %9
  %11 = add nsw i32 %10, 1
  ret i32 %11
}

; Function Attrs: mustprogress nounwind uwtable
define linkonce_odr noundef i32 @_ZNK32pxrInternal_v0_24__pxrReserved__8GfRect2i8GetWidthEv(ptr noundef nonnull align 4 dereferenceable(16) %0) #1 comdat align 2 {
  %2 = alloca ptr, align 8
  store ptr %0, ptr %2, align 8
  %3 = load ptr, ptr %2, align 8
  %4 = getelementptr inbounds nuw %"class.pxrInternal_v0_24__pxrReserved__::GfRect2i", ptr %3, i32 0, i32 1
  %5 = call noundef nonnull align 4 dereferenceable(4) ptr @_ZNK32pxrInternal_v0_24__pxrReserved__7GfVec2iixEm(ptr noundef nonnull align 4 dereferenceable(8) %4, i64 noundef 0)
  %6 = load i32, ptr %5, align 4
  %7 = getelementptr inbounds nuw %"class.pxrInternal_v0_24__pxrReserved__::GfRect2i", ptr %3, i32 0, i32 0
  %8 = call noundef nonnull align 4 dereferenceable(4) ptr @_ZNK32pxrInternal_v0_24__pxrReserved__7GfVec2iixEm(ptr noundef nonnull align 4 dereferenceable(8) %7, i64 noundef 0)
  %9 = load i32, ptr %8, align 4
  %10 = sub nsw i32 %6, %9
  %11 = add nsw i32 %10, 1
  ret i32 %11
}

; Function Attrs: mustprogress uwtable
define linkonce_odr noundef zeroext i1 @_ZNK32pxrInternal_v0_24__pxrReserved__9GfRange2f7IsEmptyEv(ptr noundef nonnull align 4 dereferenceable(16) %0) #0 comdat align 2 {
  %2 = alloca ptr, align 8
  store ptr %0, ptr %2, align 8
  %3 = load ptr, ptr %2, align 8
  %4 = getelementptr inbounds nuw %"class.pxrInternal_v0_24__pxrReserved__::GfRange2f", ptr %3, i32 0, i32 0
  %5 = call noundef nonnull align 4 dereferenceable(4) ptr @_ZNK32pxrInternal_v0_24__pxrReserved__7GfVec2fixEm(ptr noundef nonnull align 4 dereferenceable(8) %4, i64 noundef 0)
  %6 = load float, ptr %5, align 4
  %7 = getelementptr inbounds nuw %"class.pxrInternal_v0_24__pxrReserved__::GfRange2f", ptr %3, i32 0, i32 1
  %8 = call noundef nonnull align 4 dereferenceable(4) ptr @_ZNK32pxrInternal_v0_24__pxrReserved__7GfVec2fixEm(ptr noundef nonnull align 4 dereferenceable(8) %7, i64 noundef 0)
  %9 = load float, ptr %8, align 4
  %10 = fcmp ogt float %6, %9
  br i1 %10, label %19, label %11

11:                                               ; preds = %1
  %12 = getelementptr inbounds nuw %"class.pxrInternal_v0_24__pxrReserved__::GfRange2f", ptr %3, i32 0, i32 0
  %13 = call noundef nonnull align 4 dereferenceable(4) ptr @_ZNK32pxrInternal_v0_24__pxrReserved__7GfVec2fixEm(ptr noundef nonnull align 4 dereferenceable(8) %12, i64 noundef 1)
  %14 = load float, ptr %13, align 4
  %15 = getelementptr inbounds nuw %"class.pxrInternal_v0_24__pxrReserved__::GfRange2f", ptr %3, i32 0, i32 1
  %16 = call noundef nonnull align 4 dereferenceable(4) ptr @_ZNK32pxrInternal_v0_24__pxrReserved__7GfVec2fixEm(ptr noundef nonnull align 4 dereferenceable(8) %15, i64 noundef 1)
  %17 = load float, ptr %16, align 4
  %18 = fcmp ogt float %14, %17
  br label %19

19:                                               ; preds = %11, %1
  %20 = phi i1 [ true, %1 ], [ %18, %11 ]
  ret i1 %20
}

; Function Attrs: mustprogress uwtable
define linkonce_odr noundef zeroext i1 @_ZNK32pxrInternal_v0_24__pxrReserved__8GfRect2i7IsEmptyEv(ptr noundef nonnull align 4 dereferenceable(16) %0) #0 comdat align 2 {
  %2 = alloca ptr, align 8
  store ptr %0, ptr %2, align 8
  %3 = load ptr, ptr %2, align 8
  %4 = call noundef i32 @_ZNK32pxrInternal_v0_24__pxrReserved__8GfRect2i8GetWidthEv(ptr noundef nonnull align 4 dereferenceable(16) %3)
  %5 = icmp sle i32 %4, 0
  br i1 %5, label %9, label %6

6:                                                ; preds = %1
  %7 = call noundef i32 @_ZNK32pxrInternal_v0_24__pxrReserved__8GfRect2i9GetHeightEv(ptr noundef nonnull align 4 dereferenceable(16) %3)
  %8 = icmp sle i32 %7, 0
  br label %9

9:                                                ; preds = %6, %1
  %10 = phi i1 [ true, %1 ], [ %8, %6 ]
  ret i1 %10
}

; Function Attrs: mustprogress uwtable
define noundef zeroext i1 @_ZNK32pxrInternal_v0_24__pxrReserved__17CameraUtilFraming7IsValidEv(ptr noundef nonnull align 4 dereferenceable(36) %0) #0 align 2 {
  %2 = alloca ptr, align 8
  store ptr %0, ptr %2, align 8
  %3 = load ptr, ptr %2, align 8
  %4 = getelementptr inbounds nuw %"class.pxrInternal_v0_24__pxrReserved__::CameraUtilFraming", ptr %3, i32 0, i32 1
  %5 = call noundef zeroext i1 @_ZNK32pxrInternal_v0_24__pxrReserved__8GfRect2i7IsEmptyEv(ptr noundef nonnull align 4 dereferenceable(16) %4)
  br i1 %5, label %13, label %6

6:                                                ; preds = %1
  %7 = getelementptr inbounds nuw %"class.pxrInternal_v0_24__pxrReserved__::CameraUtilFraming", ptr %3, i32 0, i32 0
  %8 = call noundef zeroext i1 @_ZNK32pxrInternal_v0_24__pxrReserved__9GfRange2f7IsEmptyEv(ptr noundef nonnull align 4 dereferenceable(16) %7)
  br i1 %8, label %13, label %9

9:                                                ; preds = %6
  %10 = getelementptr inbounds nuw %"class.pxrInternal_v0_24__pxrReserved__::CameraUtilFraming", ptr %3, i32 0, i32 2
  %11 = load float, ptr %10, align 4
  %12 = fcmp une float %11, 0.000000e+00
  br label %13

13:                                               ; preds = %9, %6, %1
  %14 = phi i1 [ false, %6 ], [ false, %1 ], [ %12, %9 ]
  ret i1 %14
}