; Function Attrs: mustprogress nofree norecurse nosync nounwind willreturn memory(argmem: read) uwtable
define noundef zeroext i1 @_ZNK32pxrInternal_v0_24__pxrReserved__17CameraUtilFraming7IsValidEv(ptr nocapture noundef nonnull readonly align 4 dereferenceable(36) %0) local_unnamed_addr #3 align 2 {
  %2 = getelementptr inbounds nuw i8, ptr %0, i64 16
  %3 = getelementptr inbounds i8, ptr %0, i64 24
  %4 = load i32, ptr %3, align 4
  %5 = load i32, ptr %2, align 4
  %6 = add i32 %4, 1
  %7 = sub i32 %6, %5
  %8 = icmp slt i32 %7, 1
  br i1 %8, label %_ZNK32pxrInternal_v0_24__pxrReserved__8GfRect2i7IsEmptyEv.exit.thread, label %_ZNK32pxrInternal_v0_24__pxrReserved__8GfRect2i7IsEmptyEv.exit

_ZNK32pxrInternal_v0_24__pxrReserved__8GfRect2i7IsEmptyEv.exit: ; preds = %1
  %9 = getelementptr inbounds i8, ptr %0, i64 28
  %10 = load i32, ptr %9, align 4
  %11 = getelementptr inbounds i8, ptr %0, i64 20
  %12 = load i32, ptr %11, align 4
  %13 = add i32 %10, 1
  %14 = sub i32 %13, %12
  %15 = icmp slt i32 %14, 1
  br i1 %15, label %_ZNK32pxrInternal_v0_24__pxrReserved__8GfRect2i7IsEmptyEv.exit.thread, label %16

16:                                               ; preds = %_ZNK32pxrInternal_v0_24__pxrReserved__8GfRect2i7IsEmptyEv.exit
  %17 = load float, ptr %0, align 4
  %18 = getelementptr inbounds nuw i8, ptr %0, i64 8
  %19 = load float, ptr %18, align 4
  %20 = fcmp ogt float %17, %19
  %21 = getelementptr inbounds i8, ptr %0, i64 4
  %22 = load float, ptr %21, align 4
  %23 = getelementptr inbounds i8, ptr %0, i64 12
  %24 = load float, ptr %23, align 4
  %25 = fcmp ogt float %22, %24
  %26 = select i1 %20, i1 true, i1 %25
  br i1 %26, label %_ZNK32pxrInternal_v0_24__pxrReserved__8GfRect2i7IsEmptyEv.exit.thread, label %27

27:                                               ; preds = %16
  %28 = getelementptr inbounds nuw i8, ptr %0, i64 32
  %29 = load float, ptr %28, align 4
  %30 = fcmp une float %29, 0.000000e+00
  br label %_ZNK32pxrInternal_v0_24__pxrReserved__8GfRect2i7IsEmptyEv.exit.thread

_ZNK32pxrInternal_v0_24__pxrReserved__8GfRect2i7IsEmptyEv.exit.thread: ; preds = %1, %27, %16, %_ZNK32pxrInternal_v0_24__pxrReserved__8GfRect2i7IsEmptyEv.exit
  %31 = phi i1 [ false, %16 ], [ false, %_ZNK32pxrInternal_v0_24__pxrReserved__8GfRect2i7IsEmptyEv.exit ], [ %30, %27 ], [ false, %1 ]
  ret i1 %31
}